; Function Attrs: mustprogress nofree nounwind uwtable
define dso_local noundef nonnull ptr @_ZN8simdjson8internal25get_unsupported_singletonEv() local_unnamed_addr #13 personality ptr @__gxx_personality_v0 {
  %1 = load atomic i8, ptr @_ZGVZN8simdjson8internal25get_unsupported_singletonEvE21unsupported_singleton acquire, align 8
  %2 = icmp eq i8 %1, 0
  br i1 %2, label %3, label %7, !prof !51

3:                                                ; preds = %0
  %4 = tail call i32 @__cxa_guard_acquire(ptr nonnull @_ZGVZN8simdjson8internal25get_unsupported_singletonEvE21unsupported_singleton) #45
  %.not = icmp eq i32 %4, 0
  br i1 %.not, label %7, label %5

5:                                                ; preds = %3
  store i64 11, ptr getelementptr inbounds nuw (i8, ptr @_ZZN8simdjson8internal25get_unsupported_singletonEvE21unsupported_singleton, i64 8), align 8, !tbaa !11
  store ptr @.str.34, ptr getelementptr inbounds nuw (i8, ptr @_ZZN8simdjson8internal25get_unsupported_singletonEvE21unsupported_singleton, i64 16), align 8, !tbaa !18
  store i64 47, ptr getelementptr inbounds nuw (i8, ptr @_ZZN8simdjson8internal25get_unsupported_singletonEvE21unsupported_singleton, i64 24), align 8, !tbaa !11
  store ptr @.str.35, ptr getelementptr inbounds nuw (i8, ptr @_ZZN8simdjson8internal25get_unsupported_singletonEvE21unsupported_singleton, i64 32), align 8, !tbaa !18
  store i32 0, ptr getelementptr inbounds nuw (i8, ptr @_ZZN8simdjson8internal25get_unsupported_singletonEvE21unsupported_singleton, i64 40), align 8, !tbaa !52
  store ptr getelementptr inbounds nuw inrange(-16, 48) (i8, ptr @_ZTVN8simdjson8internal26unsupported_implementationE, i64 16), ptr @_ZZN8simdjson8internal25get_unsupported_singletonEvE21unsupported_singleton, align 8, !tbaa !47
  %6 = tail call ptr @llvm.invariant.start.p0(i64 48, ptr nonnull @_ZZN8simdjson8internal25get_unsupported_singletonEvE21unsupported_singleton)
  tail call void @__cxa_guard_release(ptr nonnull @_ZGVZN8simdjson8internal25get_unsupported_singletonEvE21unsupported_singleton) #45
  br label %7

7:                                                ; preds = %5, %3, %0
  ret ptr @_ZZN8simdjson8internal25get_unsupported_singletonEvE21unsupported_singleton
}